
test_z8001.o:     file format coff-z8k


Disassembly of section .text:

00000000 <.text>:
   0:	8d28           	clr	r2
   2:	0d28           	clr	@rr2
   4:	4d08 8a00 1234 	clr	0xa001234
   a:	4d28 8a00 1234 	clr	0xa001234(r2)
  10:	8c18           	clrb	rh1
  12:	0c28           	clrb	@rr2
  14:	4c08 8a00 1234 	clrb	0xa001234
  1a:	4c28 8a00 1234 	clrb	0xa001234(r2)
  20:	ad21           	ex	r1,r2
  22:	2d21           	ex	r1,@rr2
  24:	6d01 8a00 1234 	ex	r1,0xa001234
  2a:	6d21 8a00 1234 	ex	r1,0xa001234(r2)
  30:	ac29           	exb	rl1,rh2
  32:	2c29           	exb	rl1,@rr2
  34:	6c09 8a00 1234 	exb	rl1,0xa001234
  3a:	6c29 8a00 1234 	exb	rl1,0xa001234(r2)
  40:	a121           	ld	r1,r2
  42:	2121           	ld	r1,@rr2
  44:	6101 8a00 1234 	ld	r1,0xa001234
  4a:	6121 8a00 1234 	ld	r1,0xa001234(r2)
  50:	3121 1234      	ld	r1,rr2(#0x1234)
  54:	7121 0400      	ld	r1,rr2(r4)
  58:	2f21           	ld	@rr2,r1
  5a:	6f01 8a00 1234 	ld	0xa001234,r1
  60:	6f21 8a00 1234 	ld	0xa001234(r2),r1
  66:	3321 1234      	ld	rr2(#0x1234),r1
  6a:	7321 0400      	ld	rr2(r4),r1
  6e:	2102 5678      	ld	r2,#0x5678
  72:	0d25 5678      	ld	@rr2,#0x5678
  76:	4d05 8a00 1234 	ld	0xa001234,#0x5678
  7c:	5678 
  7e:	4d25 8a00 1234 	ld	0xa001234(r2),#0x5678
  84:	5678 
  86:	a021           	ldb	rh1,rh2
  88:	2021           	ldb	rh1,@rr2
  8a:	6001 8a00 1234 	ldb	rh1,0xa001234
  90:	6021 8a00 1234 	ldb	rh1,0xa001234(r2)
  96:	3021 1234      	ldb	rh1,rr2(#0x1234)
  9a:	7021 0300      	ldb	rh1,rr2(r3)
  9e:	2e21           	ldb	@rr2,rh1
  a0:	6e01 8a00 1234 	ldb	0xa001234,rh1
  a6:	6e21 8a00 1234 	ldb	0xa001234(r2),rh1
  ac:	3221 1234      	ldb	rr2(#0x1234),rh1
  b0:	7221 0300      	ldb	rr2(r3),rh1
  b4:	c156           	ldb	rh1,#0x56
  b6:	0c25 5656      	ldb	@rr2,#0x56
  ba:	4c05 8a00 1234 	ldb	0xa001234,#0x56
  c0:	5656 
  c2:	4c25 8a00 1234 	ldb	0xa001234(r2),#0x56
  c8:	5656 
  ca:	9442           	ldl	rr2,rr4
  cc:	1442           	ldl	rr2,@rr4
  ce:	5402 8a00 1234 	ldl	rr2,0xa001234
  d4:	5442 8a00 1234 	ldl	rr2,0xa001234(r4)
  da:	3542 1234      	ldl	rr2,rr4(#0x1234)
  de:	7542 0600      	ldl	rr2,rr4(r6)
  e2:	1d42           	ldl	@rr4,rr2
  e4:	5d02 8a00 1234 	ldl	0xa001234,rr2
  ea:	5d42 8a00 1234 	ldl	0xa001234(r4),rr2
  f0:	3742 1234      	ldl	rr4(#0x1234),rr2
  f4:	7742 0500      	ldl	rr4(r5),rr2
  f8:	1402 1234 5678 	ldl	rr2,#0x12345678
  fe:	7602 8a00 1234 	lda	rr2,0xa001234
 104:	7642 8a00 1234 	lda	rr2,0xa001234(r4)
 10a:	3442 1234      	lda	rr2,rr4(#0x1234)
 10e:	7442 0600      	lda	rr2,rr4(r6)

00000112 <L0^A>:
 112:	3402 fffc      	ldar	rr2,0x112
 116:	bd1f           	ldk	r1,#0xf
 118:	1c21 000f      	ldm	r0,@rr2,#0x10
 11c:	5c01 000e 8a00 	ldm	r0,0xa001234,#0xf
 122:	1234 
 124:	5c21 000d 8a00 	ldm	r0,0xa001234(r2),#0xe
 12a:	1234 
 12c:	1c29 0100      	ldm	@rr2,r1,#0x1
 130:	5c09 0101 8a00 	ldm	0xa001234,r1,#0x2
 136:	1234 
 138:	5c29 0102 8a00 	ldm	0xa001234(r2),r1,#0x3
 13e:	1234 

00000140 <L0^A>:
 140:	3101 fffc      	ldr	r1,0x140

00000144 <L0^A>:
 144:	3301 fffc      	ldr	0x144,r1

00000148 <L0^A>:
 148:	3001 fffc      	ldrb	rh1,0x148

0000014c <L0^A>:
 14c:	3201 fffc      	ldrb	0x14c,rh1

00000150 <L0^A>:
 150:	3502 fffc      	ldrl	rr2,0x150

00000154 <L0^A>:
 154:	3702 fffc      	ldrl	0x154,rr2
 158:	9741           	pop	r1,@rr4
 15a:	1742           	pop	@rr2,@rr4
 15c:	5740 8a00 1234 	pop	0xa001234,@rr4
 162:	5742 8a00 1234 	pop	0xa001234(r2),@rr4
 168:	9542           	popl	rr2,@rr4
 16a:	1542           	popl	@rr2,@rr4
 16c:	5540 8a00 1234 	popl	0xa001234,@rr4
 172:	5542 8a00 1234 	popl	0xa001234(r2),@rr4
 178:	9341           	push	@rr4,r1
 17a:	0d49 1234      	push	@rr4,#0x1234
 17e:	1342           	push	@rr4,@rr2
 180:	5340 8a00 1234 	push	@rr4,0xa001234
 186:	5342 8a00 1234 	push	@rr4,0xa001234(r2)
 18c:	9142           	pushl	@rr4,rr2
 18e:	1142           	pushl	@rr4,@rr2
 190:	5140 8a00 1234 	pushl	@rr4,0xa001234
 196:	5142 8a00 1234 	pushl	@rr4,0xa001234(r2)
 19c:	b521           	adc	r1,r2
 19e:	b421           	adcb	rh1,rh2
 1a0:	8121           	add	r1,r2
 1a2:	0101 1234      	add	r1,#0x1234
 1a6:	0121           	add	r1,@rr2
 1a8:	4101 8a00 1234 	add	r1,0xa001234
 1ae:	4121 8a00 1234 	add	r1,0xa001234(r2)
 1b4:	8021           	addb	rh1,rh2
 1b6:	0001 2323      	addb	rh1,#0x23
 1ba:	0021           	addb	rh1,@rr2
 1bc:	4001 8a00 1234 	addb	rh1,0xa001234
 1c2:	4021 8a00 1234 	addb	rh1,0xa001234(r2)
 1c8:	9642           	addl	rr2,rr4
 1ca:	1602 1234 5678 	addl	rr2,#0x12345678
 1d0:	1642           	addl	rr2,@rr4
 1d2:	5602 8a00 1234 	addl	rr2,0xa001234
 1d8:	5642 8a00 1234 	addl	rr2,0xa001234(r4)
 1de:	8b21           	cp	r1,r2
 1e0:	0b01 1234      	cp	r1,#0x1234
 1e4:	0b21           	cp	r1,@rr2
 1e6:	4b01 8a00 1234 	cp	r1,0xa001234
 1ec:	4b21 8a00 1234 	cp	r1,0xa001234(r2)
 1f2:	0d21 1234      	cp	@rr2,#0x1234
 1f6:	4d01 8a00 1234 	cp	0xa001234,#0x1234
 1fc:	1234 
 1fe:	4d21 8a00 1234 	cp	0xa001234(r2),#0x1234
 204:	1234 
 206:	8a21           	cpb	rh1,rh2
 208:	0a01 1212      	cpb	rh1,#0x12
 20c:	0a21           	cpb	rh1,@rr2
 20e:	4a01 8a00 1234 	cpb	rh1,0xa001234
 214:	4a21 8a00 1234 	cpb	rh1,0xa001234(r2)
 21a:	0c21 1212      	cpb	@rr2,#0x12
 21e:	4c01 8a00 1234 	cpb	0xa001234,#0x12
 224:	1212 
 226:	4c21 8a00 1234 	cpb	0xa001234(r2),#0x12
 22c:	1212 
 22e:	9042           	cpl	rr2,rr4
 230:	1002 1234 5678 	cpl	rr2,#0x12345678
 236:	1042           	cpl	rr2,@rr4
 238:	5002 8a00 1234 	cpl	rr2,0xa001234
 23e:	5042 8a00 1234 	cpl	rr2,0xa001234(r4)
 244:	b010           	dab	rh1
 246:	ab1f           	dec	r1,#0x10
 248:	2b2e           	dec	@rr2,#0xf
 24a:	6b0d 8a00 1234 	dec	0xa001234,#0xe
 250:	6b2c 8a00 1234 	dec	0xa001234(r2),#0xd
 256:	aa17           	decb	rh1,#0x8
 258:	2a26           	decb	@rr2,#0x7
 25a:	6a05 8a00 1234 	decb	0xa001234,#0x6
 260:	6a24 8a00 1234 	decb	0xa001234(r2),#0x5
 266:	9b42           	div	rr2,r4
 268:	1b02 1234      	div	rr2,#0x1234
 26c:	1b42           	div	rr2,@rr4
 26e:	5b02 8a00 1234 	div	rr2,0xa001234
 274:	5b42 8a00 1234 	div	rr2,0xa001234(r4)
 27a:	9a64           	divl	rq4,rr6
 27c:	1a04 1234 5678 	divl	rq4,#0x12345678
 282:	1a64           	divl	rq4,@rr6
 284:	5a04 8a00 1234 	divl	rq4,0xa001234
 28a:	5a64 8a00 1234 	divl	rq4,0xa001234(r6)
 290:	b12a           	exts	rr2
 292:	b110           	extsb	r1
 294:	b147           	extsl	rq4
 296:	a91f           	inc	r1,#0x10
 298:	292e           	inc	@rr2,#0xf
 29a:	690d 8a00 1234 	inc	0xa001234,#0xe
 2a0:	692c 8a00 1234 	inc	0xa001234(r2),#0xd
 2a6:	a817           	incb	rh1,#0x8
 2a8:	2826           	incb	@rr2,#0x7
 2aa:	6805 8a00 1234 	incb	0xa001234,#0x6
 2b0:	6824 8a00 1234 	incb	0xa001234(r2),#0x5
 2b6:	9942           	mult	rr2,r4
 2b8:	1902 1234      	mult	rr2,#0x1234
 2bc:	1942           	mult	rr2,@rr4
 2be:	5902 8a00 1234 	mult	rr2,0xa001234
 2c4:	5942 8a00 1234 	mult	rr2,0xa001234(r4)
 2ca:	9864           	multl	rq4,rr6
 2cc:	1804 1234 5678 	multl	rq4,#0x12345678
 2d2:	1864           	multl	rq4,@rr6
 2d4:	5804 8a00 1234 	multl	rq4,0xa001234
 2da:	5864 8a00 1234 	multl	rq4,0xa001234(r6)
 2e0:	8d12           	neg	r1
 2e2:	0d22           	neg	@rr2
 2e4:	4d02 8a00 1234 	neg	0xa001234
 2ea:	4d22 8a00 1234 	neg	0xa001234(r2)
 2f0:	8c12           	negb	rh1
 2f2:	0c22           	negb	@rr2
 2f4:	4c02 8a00 1234 	negb	0xa001234
 2fa:	4c22 8a00 1234 	negb	0xa001234(r2)
 300:	b721           	sbc	r1,r2
 302:	b621           	sbcb	rh1,rh2
 304:	8321           	sub	r1,r2
 306:	0301 1234      	sub	r1,#0x1234
 30a:	0321           	sub	r1,@rr2
 30c:	4301 8a00 1234 	sub	r1,0xa001234
 312:	4321 8a00 1234 	sub	r1,0xa001234(r2)
 318:	8221           	subb	rh1,rh2
 31a:	0201 1212      	subb	rh1,#0x12
 31e:	0221           	subb	rh1,@rr2
 320:	4201 8a00 1234 	subb	rh1,0xa001234
 326:	4221 8a00 1234 	subb	rh1,0xa001234(r2)
 32c:	9242           	subl	rr2,rr4
 32e:	1202 1234 5678 	subl	rr2,#0x12345678
 334:	1242           	subl	rr2,@rr4
 336:	5202 8a00 1234 	subl	rr2,0xa001234
 33c:	5242 8a00 1234 	subl	rr2,0xa001234(r4)
 342:	8721           	and	r1,r2
 344:	0701 1234      	and	r1,#0x1234
 348:	0721           	and	r1,@rr2
 34a:	4701 8a00 1234 	and	r1,0xa001234
 350:	4721 8a00 1234 	and	r1,0xa001234(r2)
 356:	8621           	andb	rh1,rh2
 358:	0601 1212      	andb	rh1,#0x12
 35c:	0621           	andb	rh1,@rr2
 35e:	4601 8a00 1234 	andb	rh1,0xa001234
 364:	4621 8a00 1234 	andb	rh1,0xa001234(r2)
 36a:	8d10           	com	r1
 36c:	0d20           	com	@rr2
 36e:	4d00 8a00 1234 	com	0xa001234
 374:	4d20 8a00 1234 	com	0xa001234(r2)
 37a:	8c10           	comb	rh1
 37c:	0c20           	comb	@rr2
 37e:	4c00 8a00 1234 	comb	0xa001234
 384:	4c20 8a00 1234 	comb	0xa001234(r2)
 38a:	8521           	or	r1,r2
 38c:	0501 1234      	or	r1,#0x1234
 390:	0521           	or	r1,@rr2
 392:	4501 8a00 1234 	or	r1,0xa001234
 398:	4521 8a00 1234 	or	r1,0xa001234(r2)
 39e:	8421           	orb	rh1,rh2
 3a0:	0401 1212      	orb	rh1,#0x12
 3a4:	0421           	orb	rh1,@rr2
 3a6:	4401 8a00 1234 	orb	rh1,0xa001234
 3ac:	4421 8a00 1234 	orb	rh1,0xa001234(r2)
 3b2:	8d14           	test	r1
 3b4:	0d24           	test	@rr2
 3b6:	4d04 8a00 1234 	test	0xa001234
 3bc:	4d24 8a00 1234 	test	0xa001234(r2)
 3c2:	8c14           	testb	rh1
 3c4:	0c24           	testb	@rr2
 3c6:	4c04 8a00 1234 	testb	0xa001234
 3cc:	4c24 8a00 1234 	testb	0xa001234(r2)
 3d2:	9c28           	testl	rr2
 3d4:	1c28           	testl	@rr2
 3d6:	5c08 8a00 1234 	testl	0xa001234
 3dc:	5c28 8a00 1234 	testl	0xa001234(r2)
 3e2:	8921           	xor	r1,r2
 3e4:	0901 1234      	xor	r1,#0x1234
 3e8:	0921           	xor	r1,@rr2
 3ea:	4901 8a00 1234 	xor	r1,0xa001234
 3f0:	4921 8a00 1234 	xor	r1,0xa001234(r2)
 3f6:	8821           	xorb	rh1,rh2
 3f8:	0801 1212      	xorb	rh1,#0x12
 3fc:	0821           	xorb	rh1,@rr2
 3fe:	4801 8a00 1234 	xorb	rh1,0xa001234
 404:	4821 8a00 1234 	xorb	rh1,0xa001234(r2)
 40a:	1f20           	call	@rr2
 40c:	5f00 8a00 1234 	call	0xa001234
 412:	5f20 8a00 1234 	call	0xa001234(r2)
 418:	d001           	calr	0x418
 41a:	f181           	djnz	r1,0x41a
 41c:	f101           	dbjnz	rh1,0x41c
 41e:	7b00           	iret	
 420:	1e28           	jp	t,@rr2
 422:	5e08 8a00 1234 	jp	t,0xa001234
 428:	5e28 8a00 1234 	jp	t,0xa001234(r2)
 42e:	1e26           	jp	eq,@rr2
 430:	5e0e 8a00 1234 	jp	ne,0xa001234
 436:	5e26 8a00 1234 	jp	eq,0xa001234(r2)
 43c:	e0ff           	jr	f,0x43c
 43e:	e1ff           	jr	lt,0x43e
 440:	e2ff           	jr	le,0x440
 442:	e3ff           	jr	ule,0x442
 444:	e4ff           	jr	ov/pe,0x444
 446:	e5ff           	jr	mi,0x446
 448:	e6ff           	jr	eq,0x448
 44a:	e6ff           	jr	eq,0x44a
 44c:	e7ff           	jr	c/ult,0x44c
 44e:	e7ff           	jr	c/ult,0x44e
 450:	e8ff           	jr	t,0x450
 452:	e9ff           	jr	ge,0x452
 454:	eaff           	jr	gt,0x454
 456:	ebff           	jr	ugt,0x456
 458:	ecff           	jr	nov/po,0x458
 45a:	edff           	jr	pl,0x45a
 45c:	eeff           	jr	ne,0x45c
 45e:	eeff           	jr	ne,0x45e
 460:	efff           	jr	nc/uge,0x460
 462:	efff           	jr	nc/uge,0x462
 464:	9e00           	ret	f
 466:	9e01           	ret	lt
 468:	9e02           	ret	le
 46a:	9e03           	ret	ule
 46c:	9e04           	ret	ov/pe
 46e:	9e05           	ret	mi
 470:	9e06           	ret	eq
 472:	9e06           	ret	eq
 474:	9e07           	ret	c/ult
 476:	9e07           	ret	c/ult
 478:	9e08           	ret	t
 47a:	9e09           	ret	ge
 47c:	9e0a           	ret	gt
 47e:	9e0b           	ret	ugt
 480:	9e0c           	ret	nov/po
 482:	9e0d           	ret	pl
 484:	9e0e           	ret	ne
 486:	9e0e           	ret	ne
 488:	9e0f           	ret	nc/uge
 48a:	9e0f           	ret	nc/uge
 48c:	7f03           	sc	#0x3
 48e:	2702 0100      	bit	r1,r2
 492:	a71f           	bit	r1,#0xf
 494:	272e           	bit	@rr2,#0xe
 496:	670d 8a00 1234 	bit	0xa001234,#0xd
 49c:	672c 8a00 1234 	bit	0xa001234(r2),#0xc
 4a2:	2602 0100      	bitb	rh1,r2
 4a6:	a617           	bitb	rh1,#0x7
 4a8:	2626           	bitb	@rr2,#0x6
 4aa:	6605 8a00 1234 	bitb	0xa001234,#0x5
 4b0:	6624 8a00 1234 	bitb	0xa001234(r2),#0x4
 4b6:	2302 0100      	res	r1,r2
 4ba:	a31f           	res	r1,#0xf
 4bc:	232e           	res	@rr2,#0xe
 4be:	630d 8a00 1234 	res	0xa001234,#0xd
 4c4:	632c 8a00 1234 	res	0xa001234(r2),#0xc
 4ca:	2202 0100      	resb	rh1,r2
 4ce:	a217           	resb	rh1,#0x7
 4d0:	2226           	resb	@rr2,#0x6
 4d2:	6205 8a00 1234 	resb	0xa001234,#0x5
 4d8:	6224 8a00 1234 	resb	0xa001234(r2),#0x4
 4de:	2502 0100      	set	r1,r2
 4e2:	a51f           	set	r1,#0xf
 4e4:	252e           	set	@rr2,#0xe
 4e6:	650d 8a00 1234 	set	0xa001234,#0xd
 4ec:	652c 8a00 1234 	set	0xa001234(r2),#0xc
 4f2:	2402 0100      	setb	rh1,r2
 4f6:	a417           	setb	rh1,#0x7
 4f8:	2426           	setb	@rr2,#0x6
 4fa:	6405 8a00 1234 	setb	0xa001234,#0x5
 500:	6424 8a00 1234 	setb	0xa001234(r2),#0x4
 506:	8d16           	tset	r1
 508:	0d26           	tset	@rr2
 50a:	4d06 8a00 1234 	tset	0xa001234
 510:	4d24 8a00 1234 	test	0xa001234(r2)
 516:	8c16           	tsetb	rh1
 518:	0c26           	tsetb	@rr2
 51a:	4c06 8a00 1234 	tsetb	0xa001234
 520:	4c26 8a00 1234 	tsetb	0xa001234(r2)
 526:	af10           	tcc	f,r1
 528:	af11           	tcc	lt,r1
 52a:	af12           	tcc	le,r1
 52c:	af13           	tcc	ule,r1
 52e:	af14           	tcc	ov/pe,r1
 530:	af15           	tcc	mi,r1
 532:	af16           	tcc	eq,r1
 534:	af16           	tcc	eq,r1
 536:	af17           	tcc	c/ult,r1
 538:	af17           	tcc	c/ult,r1
 53a:	af18           	tcc	t,r1
 53c:	af19           	tcc	ge,r1
 53e:	af1a           	tcc	gt,r1
 540:	af1b           	tcc	ugt,r1
 542:	af1c           	tcc	nov/po,r1
 544:	af1d           	tcc	pl,r1
 546:	af1e           	tcc	ne,r1
 548:	af1e           	tcc	ne,r1
 54a:	af1f           	tcc	nc/uge,r1
 54c:	af1f           	tcc	nc/uge,r1
 54e:	ae10           	tccb	f,rh1
 550:	ae11           	tccb	lt,rh1
 552:	ae12           	tccb	le,rh1
 554:	ae13           	tccb	ule,rh1
 556:	ae14           	tccb	ov/pe,rh1
 558:	ae15           	tccb	mi,rh1
 55a:	ae16           	tccb	eq,rh1
 55c:	ae16           	tccb	eq,rh1
 55e:	ae17           	tccb	c/ult,rh1
 560:	ae17           	tccb	c/ult,rh1
 562:	ae18           	tccb	t,rh1
 564:	ae19           	tccb	ge,rh1
 566:	ae1a           	tccb	gt,rh1
 568:	ae1b           	tccb	ugt,rh1
 56a:	ae1c           	tccb	nov/po,rh1
 56c:	ae1d           	tccb	pl,rh1
 56e:	ae1e           	tccb	ne,rh1
 570:	ae1e           	tccb	ne,rh1
 572:	ae1f           	tccb	nc/uge,rh1
 574:	ae1f           	tccb	nc/uge,rh1
 576:	b310           	rl	r1,#0x1
 578:	b212           	rlb	rh1,#0x2
 57a:	b31a           	rlc	r1,#0x2
 57c:	b218           	rlcb	rh1,#0x1
 57e:	be21           	rldb	rh1,rh2
 580:	b316           	rr	r1,#0x2
 582:	b214           	rrb	rh1,#0x1
 584:	b31c           	rrc	r1,#0x1
 586:	b21e           	rrcb	rh1,#0x2
 588:	bc21           	rrdb	rh1,rh2
 58a:	b31b 0200      	sda	r1,r2
 58e:	b21b 0200      	sdab	rh1,r2
 592:	b34f 0200      	sdal	rr4,r2
 596:	b313 0200      	sdl	r1,r2
 59a:	b213 0200      	sdlb	rh1,r2
 59e:	b347 0200      	sdll	rr4,r2
 5a2:	b319 0010      	sla	r1,#0x10
 5a6:	b219 0008      	slab	rh1,#0x8
 5aa:	b34d 0020      	slal	rr4,#0x20
 5ae:	b311 0001      	sll	r1,#0x1
 5b2:	b211 0001      	sllb	rh1,#0x1
 5b6:	b345 0001      	slll	rr4,#0x1
 5ba:	b319 fffe      	sra	r1,#0x2
 5be:	b219 00fe      	srab	rh1,#0x2
 5c2:	b34d fffe      	sral	rr4,#0x2
 5c6:	b311 fffd      	srl	r1,#0x3
 5ca:	b211 00fd      	srlb	rh1,#0x3
 5ce:	b345 fffd      	srll	rr4,#0x3
 5d2:	bb28 0416      	cpd	r1,@rr2,r4,eq
 5d6:	ba28 041e      	cpdb	rh1,@rr2,r4,ne
 5da:	bb2c 0416      	cpdr	r1,@rr2,r4,eq
 5de:	ba2c 041e      	cpdrb	rh1,@rr2,r4,ne
 5e2:	bb20 0416      	cpi	r1,@rr2,r4,eq
 5e6:	ba20 041e      	cpib	rh1,@rr2,r4,ne
 5ea:	bb24 0416      	cpir	r1,@rr2,r4,eq
 5ee:	ba24 041e      	cpirb	rh1,@rr2,r4,ne
 5f2:	bb4a 0626      	cpsd	@rr2,@rr4,r6,eq
 5f6:	ba4a 062e      	cpsdb	@rr2,@rr4,r6,ne
 5fa:	bb4e 0626      	cpsdr	@rr2,@rr4,r6,eq
 5fe:	ba4e 062e      	cpsdrb	@rr2,@rr4,r6,ne
 602:	bb42 0626      	cpsi	@rr2,@rr4,r6,eq
 606:	ba42 062e      	cpsib	@rr2,@rr4,r6,ne
 60a:	bb46 0626      	cpsir	@rr2,@rr4,r6,eq
 60e:	ba46 062e      	cpsirb	@rr2,@rr4,r6,ne
 612:	bb49 0628      	ldd	@rr2,@rr4,r6
 616:	ba49 0628      	lddb	@rr2,@rr4,r6
 61a:	bb49 0620      	lddr	@rr2,@rr4,r6
 61e:	ba49 0620      	lddrb	@rr2,@rr4,r6
 622:	bb41 0628      	ldi	@rr2,@rr4,r6
 626:	ba41 0628      	ldib	@rr2,@rr4,r6
 62a:	bb41 0620      	ldir	@rr2,@rr4,r6
 62e:	ba41 0620      	ldirb	@rr2,@rr4,r6
 632:	b828 0640      	trdb	@rr2,@rr4,r6
 636:	b82c 0640      	trdrb	@rr2,@rr4,r6
 63a:	b820 0640      	trib	@rr2,@rr4,r6
 63e:	b824 0640      	trirb	@rr2,@rr4,r6
 642:	b82a 0640      	trtdb	@rr2,@rr4,r6
 646:	b82e 064e      	trtdrb	@rr2,@rr4,r6
 64a:	b822 0640      	trtib	@rr2,@rr4,r6
 64e:	b826 064e      	trtirb	@rr2,@rr4,r6
 652:	3d21           	in	r1,@r2
 654:	3c21           	inb	rh1,@r2
 656:	3b14 1234      	in	r1,#0x1234
 65a:	3a14 1234      	inb	rh1,#0x1234
 65e:	3b48 0628      	ind	@rr2,@r4,r6
 662:	3a48 0628      	indb	@rr2,@r4,r6
 666:	3b48 0620      	indr	@rr2,@r4,r6
 66a:	3a48 0620      	indrb	@rr2,@r4,r6
 66e:	3b40 0628      	ini	@rr2,@r4,r6
 672:	3a40 0628      	inib	@rr2,@r4,r6
 676:	3b40 0620      	inir	@rr2,@r4,r6
 67a:	3a40 0620      	inirb	@rr2,@r4,r6
 67e:	3b4a 0620      	otdr	@r2,@rr4,r6
 682:	3a4a 0620      	otdrb	@r2,@rr4,r6
 686:	3b42 0620      	otir	@r2,@rr4,r6
 68a:	3a42 0620      	otirb	@r2,@rr4,r6
 68e:	3f12           	out	@r1,r2
 690:	3e12           	outb	@r1,rh2
 692:	3b26 1234      	out	#0x1234,r2
 696:	3a26 1234      	outb	#0x1234,rh2
 69a:	3b4a 0628      	outd	@r2,@rr4,r6
 69e:	3a4a 0628      	outdb	@r2,@rr4,r6
 6a2:	3b42 0628      	outi	@r2,@rr4,r6
 6a6:	3a42 0628      	outib	@r2,@rr4,r6
 6aa:	3b15 1234      	sin	r1,#0x1234
 6ae:	3a15 1234      	sinb	rh1,#0x1234
 6b2:	3b49 0628      	sind	@rr2,@r4,r6
 6b6:	3a49 0628      	sindb	@rr2,@r4,r6
 6ba:	3b49 0620      	sindr	@rr2,@r4,r6
 6be:	3a49 0620      	sindrb	@rr2,@r4,r6
 6c2:	3b41 0628      	sini	@rr2,@r4,r6
 6c6:	3a41 0628      	sinib	@rr2,@r4,r6
 6ca:	3b41 0620      	sinir	@rr2,@r4,r6
 6ce:	3a41 0620      	sinirb	@rr2,@r4,r6
 6d2:	3b4b 0620      	sotdr	@r2,@rr4,r6
 6d6:	3a4b 0620      	sotdrb	@r2,@rr4,r6
 6da:	3b43 0620      	sotir	@r2,@rr4,r6
 6de:	3a43 0620      	sotirb	@r2,@rr4,r6
 6e2:	3b26 1234      	out	#0x1234,r2
 6e6:	3aa6 1234      	outb	#0x1234,rl2
 6ea:	3b4b 0628      	soutd	@r2,@rr4,r6
 6ee:	3a4b 0628      	soutdb	@r2,@rr4,r6
 6f2:	3b43 0628      	souti	@r2,@rr4,r6
 6f6:	3a43 0628      	soutib	@r2,@rr4,r6
 6fa:	8df5           	comflg	c,z,s,p
 6fc:	8df5           	comflg	c,z,s,p
 6fe:	8d85           	comflg	c
 700:	8d15           	comflg	p
 702:	8d25           	comflg	s
 704:	7c00           	di	vi,nvi
 706:	7c02           	di	nvi
 708:	7c01           	di	vi
 70a:	7c04           	ei	vi,nvi
 70c:	7c06           	ei	nvi
 70e:	7c05           	ei	vi
 710:	7a00           	halt	
 712:	7d1a           	ldctl	fcw,r1
 714:	7d1b           	ldctl	refresh,r1
 716:	7d1c           	ldctl	psapseg,r1
 718:	7d1d           	ldctl	psapoff,r1
 71a:	7d1e           	ldctl	nspseg,r1
 71c:	7d1f           	ldctl	nspoff,r1
 71e:	7d12           	ldctl	r1,fcw
 720:	7d13           	ldctl	r1,refresh
 722:	7d14           	ldctl	r1,psapseg
 724:	7d15           	ldctl	r1,psapoff
 726:	7d16           	ldctl	r1,nspseg
 728:	7d17           	ldctl	r1,nspoff
 72a:	8c11           	ldctlb	rh1,flags
 72c:	8c29           	ldctlb	flags,rh2
 72e:	3920           	ldps	@rr2
 730:	7900 8a00 1234 	ldps	0xa001234
 736:	7920 8a00 1234 	ldps	0xa001234(r2)
 73c:	7b0a           	mbit	
 73e:	7b1d           	mreq	r1
 740:	7b09           	mres	
 742:	7b08           	mset	
 744:	8d07           	nop	
 746:	8df3           	resflg	c,z,s,p
 748:	8df3           	resflg	c,z,s,p
 74a:	8d83           	resflg	c
 74c:	8d13           	resflg	p
 74e:	8d23           	resflg	s
 750:	8df1           	setflg	c,z,s,p
 752:	8df1           	setflg	c,z,s,p
 754:	8d81           	setflg	c
 756:	8d11           	setflg	p
 758:	8d21           	setflg	s
